SF:test/resources/sample.rs
FN:99,_ZN105_$LT$guildpact..controller..user_controller..search$u20$as$u20$actix_web..service..HttpServiceFactory$GT$8register17h0dcecf36b58e4682E
FN:13,_ZN9guildpact10controller15user_controller37_IMPL_DESERIALIZE_FOR_UserQueryParams108_$LT$impl$u20$serde..de..Deserialize$u20$for$u20$guildpact..controller..user_controller..UserQueryParams$GT$11deserialize17hf0576d927bd35e2aE
FN:62,_ZN107_$LT$guildpact..controller..user_controller..retrieve$u20$as$u20$actix_web..service..HttpServiceFactory$GT$8register8retrieve28_$u7b$$u7b$closure$u7d$$u7d$17h88a0d12ec1679ddaE
FN:82,_ZN114_$LT$guildpact..controller..user_controller..get_users_by_id$u20$as$u20$actix_web..service..HttpServiceFactory$GT$8register17h6e2f8c71430d15dfE
FN:18,_ZN9guildpact10controller15user_controller42_IMPL_DESERIALIZE_FOR_BatchUserQueryParams113_$LT$impl$u20$serde..de..Deserialize$u20$for$u20$guildpact..controller..user_controller..BatchUserQueryParams$GT$11deserialize17h996236ccf3bebce7E
FN:87,_ZN114_$LT$guildpact..controller..user_controller..get_users_by_id$u20$as$u20$actix_web..service..HttpServiceFactory$GT$8register15get_users_by_id28_$u7b$$u7b$closure$u7d$$u7d$17hecd0407dd0c8c209E
FN:8,_ZN245_$LT$guildpact..controller..user_controller.._IMPL_DESERIALIZE_FOR_UserPathInfo..$LT$impl$u20$serde..de..Deserialize$u20$for$u20$guildpact..controller..user_controller..UserPathInfo$GT$..deserialize..__Field$u20$as$u20$serde..de..Deserialize$GT$11deserialize17h8b41d960c46d1396E
FN:173,_ZN9guildpact10controller15user_controller5tests16test_update_user28_$u7b$$u7b$closure$u7d$$u7d$17h0490276a54428404E
FN:8,_ZN248_$LT$guildpact..controller..user_controller.._IMPL_DESERIALIZE_FOR_UserPathInfo..$LT$impl$u20$serde..de..Deserialize$u20$for$u20$guildpact..controller..user_controller..UserPathInfo$GT$..deserialize..__FieldVisitor$u20$as$u20$serde..de..Visitor$GT$9visit_str17ha40b846639c2430aE
FN:13,_ZN254_$LT$guildpact..controller..user_controller.._IMPL_DESERIALIZE_FOR_UserQueryParams..$LT$impl$u20$serde..de..Deserialize$u20$for$u20$guildpact..controller..user_controller..UserQueryParams$GT$..deserialize..__FieldVisitor$u20$as$u20$serde..de..Visitor$GT$9visit_str17h9fbd795c97ec180fE
FN:13,_ZN254_$LT$guildpact..controller..user_controller.._IMPL_DESERIALIZE_FOR_UserQueryParams..$LT$impl$u20$serde..de..Deserialize$u20$for$u20$guildpact..controller..user_controller..UserQueryParams$GT$..deserialize..__FieldVisitor$u20$as$u20$serde..de..Visitor$GT$9visit_str17h703fc2e93a4227aeE
FN:257,_ZN9guildpact10controller15user_controller5tests25test_search_user_by_alias28_$u7b$$u7b$closure$u7d$$u7d$17h6b52023e20c9e700E
FN:68,_ZN105_$LT$guildpact..controller..user_controller..update$u20$as$u20$actix_web..service..HttpServiceFactory$GT$8register17ha6a263477539493eE
FN:8,_ZN248_$LT$guildpact..controller..user_controller.._IMPL_DESERIALIZE_FOR_UserPathInfo..$LT$impl$u20$serde..de..Deserialize$u20$for$u20$guildpact..controller..user_controller..UserPathInfo$GT$..deserialize..__FieldVisitor$u20$as$u20$serde..de..Visitor$GT$9visit_str17hb59e49c3353a978dE
FN:8,_ZN248_$LT$guildpact..controller..user_controller.._IMPL_DESERIALIZE_FOR_UserPathInfo..$LT$impl$u20$serde..de..Deserialize$u20$for$u20$guildpact..controller..user_controller..UserPathInfo$GT$..deserialize..__FieldVisitor$u20$as$u20$serde..de..Visitor$GT$9visit_str17h935af46ed750151fE
FN:57,_ZN107_$LT$guildpact..controller..user_controller..retrieve$u20$as$u20$actix_web..service..HttpServiceFactory$GT$8register17h56234be79ab8679fE
FN:8,_ZN9guildpact10controller15user_controller34_IMPL_DESERIALIZE_FOR_UserPathInfo105_$LT$impl$u20$serde..de..Deserialize$u20$for$u20$guildpact..controller..user_controller..UserPathInfo$GT$11deserialize17he0992f9b41c98c4bE
FN:13,_ZN249_$LT$guildpact..controller..user_controller.._IMPL_DESERIALIZE_FOR_UserQueryParams..$LT$impl$u20$serde..de..Deserialize$u20$for$u20$guildpact..controller..user_controller..UserQueryParams$GT$..deserialize..__Visitor$u20$as$u20$serde..de..Visitor$GT$9visit_map17hb43b5a50cf6b654dE
FN:62,_ZN4core3ptr13drop_in_place17h185b0a06ce61284aE
FN:100,_ZN105_$LT$guildpact..controller..user_controller..search$u20$as$u20$actix_web..service..HttpServiceFactory$GT$8register6search17h6b5560f2546bcab9E
FN:46,_ZN105_$LT$guildpact..controller..user_controller..create$u20$as$u20$actix_web..service..HttpServiceFactory$GT$8register17h602a1c67838258d0E
FN:18,_ZN264_$LT$guildpact..controller..user_controller.._IMPL_DESERIALIZE_FOR_BatchUserQueryParams..$LT$impl$u20$serde..de..Deserialize$u20$for$u20$guildpact..controller..user_controller..BatchUserQueryParams$GT$..deserialize..__FieldVisitor$u20$as$u20$serde..de..Visitor$GT$9expecting17hb19a7faaa713ddedE
FN:92,_ZN114_$LT$guildpact..controller..user_controller..get_users_by_id$u20$as$u20$actix_web..service..HttpServiceFactory$GT$8register15get_users_by_id28_$u7b$$u7b$closure$u7d$$u7d$28_$u7b$$u7b$closure$u7d$$u7d$17h895643fb2ea5f012E
FN:13,_ZN249_$LT$guildpact..controller..user_controller.._IMPL_DESERIALIZE_FOR_UserQueryParams..$LT$impl$u20$serde..de..Deserialize$u20$for$u20$guildpact..controller..user_controller..UserQueryParams$GT$..deserialize..__Visitor$u20$as$u20$serde..de..Visitor$GT$9expecting17hdea4e56627361d8cE
FN:18,_ZN264_$LT$guildpact..controller..user_controller.._IMPL_DESERIALIZE_FOR_BatchUserQueryParams..$LT$impl$u20$serde..de..Deserialize$u20$for$u20$guildpact..controller..user_controller..BatchUserQueryParams$GT$..deserialize..__FieldVisitor$u20$as$u20$serde..de..Visitor$GT$9visit_str17h65db073429058ba4E
FN:100,_ZN105_$LT$guildpact..controller..user_controller..search$u20$as$u20$actix_web..service..HttpServiceFactory$GT$8register6search17hf3b433f7587e4bc1E
FN:82,_ZN114_$LT$guildpact..controller..user_controller..get_users_by_id$u20$as$u20$actix_web..service..HttpServiceFactory$GT$8register17hf1dae24b3eb9b680E
FN:173,_ZN4core3ptr13drop_in_place17h2dcff87eda1c857bE
FN:173,_ZN9guildpact10controller15user_controller5tests16test_update_user28_$u7b$$u7b$closure$u7d$$u7d$17h0d7588f28719374bE
FN:8,_ZN243_$LT$guildpact..controller..user_controller.._IMPL_DESERIALIZE_FOR_UserPathInfo..$LT$impl$u20$serde..de..Deserialize$u20$for$u20$guildpact..controller..user_controller..UserPathInfo$GT$..deserialize..__Visitor$u20$as$u20$serde..de..Visitor$GT$9visit_map17h57c8e261d201504cE
FN:58,_ZN107_$LT$guildpact..controller..user_controller..retrieve$u20$as$u20$actix_web..service..HttpServiceFactory$GT$8register8retrieve17ha8c1a590fcf8dbc9E
FN:18,_ZN9guildpact10controller15user_controller42_IMPL_DESERIALIZE_FOR_BatchUserQueryParams113_$LT$impl$u20$serde..de..Deserialize$u20$for$u20$guildpact..controller..user_controller..BatchUserQueryParams$GT$11deserialize17h2518ca4fb74ee0d1E
FN:104,_ZN4core3ptr13drop_in_place17ha7784578d55e7dd0E
FN:50,_ZN4core3ptr13drop_in_place17hc5c08f81f439c18cE
FN:18,_ZN259_$LT$guildpact..controller..user_controller.._IMPL_DESERIALIZE_FOR_BatchUserQueryParams..$LT$impl$u20$serde..de..Deserialize$u20$for$u20$guildpact..controller..user_controller..BatchUserQueryParams$GT$..deserialize..__Visitor$u20$as$u20$serde..de..Visitor$GT$9expecting17ha26ce529a926a390E
FN:104,_ZN105_$LT$guildpact..controller..user_controller..search$u20$as$u20$actix_web..service..HttpServiceFactory$GT$8register6search28_$u7b$$u7b$closure$u7d$$u7d$17h481b7ffe09662433E
FN:257,_ZN4core3ptr13drop_in_place17h39edc0f8e470fb70E
FN:104,_ZN105_$LT$guildpact..controller..user_controller..search$u20$as$u20$actix_web..service..HttpServiceFactory$GT$8register6search28_$u7b$$u7b$closure$u7d$$u7d$17h995545c83192735fE
FN:57,_ZN107_$LT$guildpact..controller..user_controller..retrieve$u20$as$u20$actix_web..service..HttpServiceFactory$GT$8register17h8d0a641e93941533E
FN:18,_ZN261_$LT$guildpact..controller..user_controller.._IMPL_DESERIALIZE_FOR_BatchUserQueryParams..$LT$impl$u20$serde..de..Deserialize$u20$for$u20$guildpact..controller..user_controller..BatchUserQueryParams$GT$..deserialize..__Field$u20$as$u20$serde..de..Deserialize$GT$11deserialize17h179f26435d51de2aE
FN:13,_ZN251_$LT$guildpact..controller..user_controller.._IMPL_DESERIALIZE_FOR_UserQueryParams..$LT$impl$u20$serde..de..Deserialize$u20$for$u20$guildpact..controller..user_controller..UserQueryParams$GT$..deserialize..__Field$u20$as$u20$serde..de..Deserialize$GT$11deserialize17hd8c4826070f7dc6eE
FN:104,_ZN4core3ptr13drop_in_place17h1d6bca593d0b48edE
FN:13,_ZN254_$LT$guildpact..controller..user_controller.._IMPL_DESERIALIZE_FOR_UserQueryParams..$LT$impl$u20$serde..de..Deserialize$u20$for$u20$guildpact..controller..user_controller..UserQueryParams$GT$..deserialize..__FieldVisitor$u20$as$u20$serde..de..Visitor$GT$9expecting17hc6af8a7737f21e80E
FN:50,_ZN4core3ptr13drop_in_place17h624b01549e15d1ddE
FN:18,_ZN264_$LT$guildpact..controller..user_controller.._IMPL_DESERIALIZE_FOR_BatchUserQueryParams..$LT$impl$u20$serde..de..Deserialize$u20$for$u20$guildpact..controller..user_controller..BatchUserQueryParams$GT$..deserialize..__FieldVisitor$u20$as$u20$serde..de..Visitor$GT$9visit_str17hf656d771212d2a32E
FN:18,_ZN9guildpact10controller15user_controller42_IMPL_DESERIALIZE_FOR_BatchUserQueryParams113_$LT$impl$u20$serde..de..Deserialize$u20$for$u20$guildpact..controller..user_controller..BatchUserQueryParams$GT$11deserialize17h749285a1d1ec1e16E
FN:13,_ZN254_$LT$guildpact..controller..user_controller.._IMPL_DESERIALIZE_FOR_UserQueryParams..$LT$impl$u20$serde..de..Deserialize$u20$for$u20$guildpact..controller..user_controller..UserQueryParams$GT$..deserialize..__FieldVisitor$u20$as$u20$serde..de..Visitor$GT$9expecting17he038e451029ab3b4E
FN:69,_ZN105_$LT$guildpact..controller..user_controller..update$u20$as$u20$actix_web..service..HttpServiceFactory$GT$8register6update17hcb82ac4da7b21197E
FN:219,_ZN9guildpact10controller15user_controller5tests22test_get_user_with_uid28_$u7b$$u7b$closure$u7d$$u7d$17hbb1ee8915414ce8cE
FN:62,_ZN107_$LT$guildpact..controller..user_controller..retrieve$u20$as$u20$actix_web..service..HttpServiceFactory$GT$8register8retrieve28_$u7b$$u7b$closure$u7d$$u7d$17h3c7b82a72327b486E
FN:8,_ZN243_$LT$guildpact..controller..user_controller.._IMPL_DESERIALIZE_FOR_UserPathInfo..$LT$impl$u20$serde..de..Deserialize$u20$for$u20$guildpact..controller..user_controller..UserPathInfo$GT$..deserialize..__Visitor$u20$as$u20$serde..de..Visitor$GT$9visit_map17hdfadac6df13c13ebE
FN:13,_ZN9guildpact10controller15user_controller37_IMPL_DESERIALIZE_FOR_UserQueryParams108_$LT$impl$u20$serde..de..Deserialize$u20$for$u20$guildpact..controller..user_controller..UserQueryParams$GT$11deserialize17h02889dc807066602E
FN:219,_ZN9guildpact10controller15user_controller5tests22test_get_user_with_uid17h7d204ec2ae728fedE
FN:13,_ZN251_$LT$guildpact..controller..user_controller.._IMPL_DESERIALIZE_FOR_UserQueryParams..$LT$impl$u20$serde..de..Deserialize$u20$for$u20$guildpact..controller..user_controller..UserQueryParams$GT$..deserialize..__Field$u20$as$u20$serde..de..Deserialize$GT$11deserialize17h013dff5e752be68dE
FN:92,_ZN114_$LT$guildpact..controller..user_controller..get_users_by_id$u20$as$u20$actix_web..service..HttpServiceFactory$GT$8register15get_users_by_id28_$u7b$$u7b$closure$u7d$$u7d$28_$u7b$$u7b$closure$u7d$$u7d$17h7e2bd1ee8cc1773fE
FN:24,_ZN9guildpact10controller15user_controller142_$LT$impl$u20$core..convert..From$LT$guildpact..model..proto..user..CreatePlayerRequest$GT$$u20$for$u20$guildpact..model..user..CreateUser$GT$4from17h47536464be4c9128E
FN:8,_ZN245_$LT$guildpact..controller..user_controller.._IMPL_DESERIALIZE_FOR_UserPathInfo..$LT$impl$u20$serde..de..Deserialize$u20$for$u20$guildpact..controller..user_controller..UserPathInfo$GT$..deserialize..__Field$u20$as$u20$serde..de..Deserialize$GT$11deserialize17hb4403c2af8b8c390E
FN:18,_ZN259_$LT$guildpact..controller..user_controller.._IMPL_DESERIALIZE_FOR_BatchUserQueryParams..$LT$impl$u20$serde..de..Deserialize$u20$for$u20$guildpact..controller..user_controller..BatchUserQueryParams$GT$..deserialize..__Visitor$u20$as$u20$serde..de..Visitor$GT$9visit_map17h70073c00ecb20c3dE
FN:140,_ZN9guildpact10controller15user_controller5tests16test_create_user28_$u7b$$u7b$closure$u7d$$u7d$17hbb057d7ffbefc3e6E
FN:83,_ZN114_$LT$guildpact..controller..user_controller..get_users_by_id$u20$as$u20$actix_web..service..HttpServiceFactory$GT$8register15get_users_by_id17h8d7c2ce7eacb7f22E
FN:13,_ZN249_$LT$guildpact..controller..user_controller.._IMPL_DESERIALIZE_FOR_UserQueryParams..$LT$impl$u20$serde..de..Deserialize$u20$for$u20$guildpact..controller..user_controller..UserQueryParams$GT$..deserialize..__Visitor$u20$as$u20$serde..de..Visitor$GT$9visit_map17h8c3d03b46ae61318E
FN:8,_ZN9guildpact10controller15user_controller34_IMPL_DESERIALIZE_FOR_UserPathInfo105_$LT$impl$u20$serde..de..Deserialize$u20$for$u20$guildpact..controller..user_controller..UserPathInfo$GT$11deserialize17hb5bd06c9317ad915E
FN:8,_ZN248_$LT$guildpact..controller..user_controller.._IMPL_DESERIALIZE_FOR_UserPathInfo..$LT$impl$u20$serde..de..Deserialize$u20$for$u20$guildpact..controller..user_controller..UserPathInfo$GT$..deserialize..__FieldVisitor$u20$as$u20$serde..de..Visitor$GT$9expecting17hcaecc3b08f894562E
FN:257,_ZN9guildpact10controller15user_controller5tests25test_search_user_by_alias17h722deae3b2e201a3E
FN:13,_ZN249_$LT$guildpact..controller..user_controller.._IMPL_DESERIALIZE_FOR_UserQueryParams..$LT$impl$u20$serde..de..Deserialize$u20$for$u20$guildpact..controller..user_controller..UserQueryParams$GT$..deserialize..__Visitor$u20$as$u20$serde..de..Visitor$GT$9expecting17ha340bd706c56c2eeE
FN:69,_ZN105_$LT$guildpact..controller..user_controller..update$u20$as$u20$actix_web..service..HttpServiceFactory$GT$8register6update17h1f9de60e947855b4E
FN:173,_ZN9guildpact10controller15user_controller5tests16test_update_user17hca00d1de42a5d35cE
FN:18,_ZN259_$LT$guildpact..controller..user_controller.._IMPL_DESERIALIZE_FOR_BatchUserQueryParams..$LT$impl$u20$serde..de..Deserialize$u20$for$u20$guildpact..controller..user_controller..BatchUserQueryParams$GT$..deserialize..__Visitor$u20$as$u20$serde..de..Visitor$GT$9visit_map17h314f3c17a4419e3aE
FN:8,_ZN248_$LT$guildpact..controller..user_controller.._IMPL_DESERIALIZE_FOR_UserPathInfo..$LT$impl$u20$serde..de..Deserialize$u20$for$u20$guildpact..controller..user_controller..UserPathInfo$GT$..deserialize..__FieldVisitor$u20$as$u20$serde..de..Visitor$GT$9expecting17hba3c677103b7201aE
FN:140,_ZN9guildpact10controller15user_controller5tests16test_create_user28_$u7b$$u7b$closure$u7d$$u7d$17hd1de161055f92a86E
FN:99,_ZN105_$LT$guildpact..controller..user_controller..search$u20$as$u20$actix_web..service..HttpServiceFactory$GT$8register17h8737cd7948dd75aeE
FN:18,_ZN264_$LT$guildpact..controller..user_controller.._IMPL_DESERIALIZE_FOR_BatchUserQueryParams..$LT$impl$u20$serde..de..Deserialize$u20$for$u20$guildpact..controller..user_controller..BatchUserQueryParams$GT$..deserialize..__FieldVisitor$u20$as$u20$serde..de..Visitor$GT$9expecting17h09cf4dc4a7eb5a8fE
FN:114,_ZN9guildpact10controller15user_controller19configure_resources17hcff43f59c5fcfe2bE
FN:46,_ZN105_$LT$guildpact..controller..user_controller..create$u20$as$u20$actix_web..service..HttpServiceFactory$GT$8register17h86c0eb93719d59b5E
FN:82,_ZN114_$LT$guildpact..controller..user_controller..get_users_by_id$u20$as$u20$actix_web..service..HttpServiceFactory$GT$8register17h1dcca96696b0780eE
FN:62,_ZN4core3ptr13drop_in_place17hee8169ed984fc5eeE
FN:47,_ZN105_$LT$guildpact..controller..user_controller..create$u20$as$u20$actix_web..service..HttpServiceFactory$GT$8register6create17hcfb8f4bae88073feE
FN:69,_ZN105_$LT$guildpact..controller..user_controller..update$u20$as$u20$actix_web..service..HttpServiceFactory$GT$8register6update17h2d242773bc356262E
FN:13,_ZN249_$LT$guildpact..controller..user_controller.._IMPL_DESERIALIZE_FOR_UserQueryParams..$LT$impl$u20$serde..de..Deserialize$u20$for$u20$guildpact..controller..user_controller..UserQueryParams$GT$..deserialize..__Visitor$u20$as$u20$serde..de..Visitor$GT$9expecting17hffe7e8c864cfb0b6E
FN:100,_ZN105_$LT$guildpact..controller..user_controller..search$u20$as$u20$actix_web..service..HttpServiceFactory$GT$8register6search17h4334f763d67df551E
FN:74,_ZN4core3ptr13drop_in_place17h63310f1581882cb6E
FN:57,_ZN107_$LT$guildpact..controller..user_controller..retrieve$u20$as$u20$actix_web..service..HttpServiceFactory$GT$8register17hdf6a0c9b5d7107ceE
FN:87,_ZN4core3ptr13drop_in_place17hf7adb87341fa9f3aE
FN:87,_ZN4core3ptr13drop_in_place17hdd86f103b401bec7E
FN:140,_ZN9guildpact10controller15user_controller5tests16test_create_user17hbe7403f42698acc0E
FN:87,_ZN4core3ptr13drop_in_place17he44cdbcaee2ec993E
FN:8,_ZN243_$LT$guildpact..controller..user_controller.._IMPL_DESERIALIZE_FOR_UserPathInfo..$LT$impl$u20$serde..de..Deserialize$u20$for$u20$guildpact..controller..user_controller..UserPathInfo$GT$..deserialize..__Visitor$u20$as$u20$serde..de..Visitor$GT$9expecting17h47d67ee87f26b4bcE
FN:114,_ZN9guildpact10controller15user_controller19configure_resources17hc9acdc5684ff2069E
FN:36,_ZN9guildpact10controller15user_controller52_$LT$impl$u20$guildpact..model..user..UpdateUser$GT$4from17h070cb447fe1bed38E
FN:18,_ZN261_$LT$guildpact..controller..user_controller.._IMPL_DESERIALIZE_FOR_BatchUserQueryParams..$LT$impl$u20$serde..de..Deserialize$u20$for$u20$guildpact..controller..user_controller..BatchUserQueryParams$GT$..deserialize..__Field$u20$as$u20$serde..de..Deserialize$GT$11deserialize17h865e31344bfc10eaE
FN:13,_ZN254_$LT$guildpact..controller..user_controller.._IMPL_DESERIALIZE_FOR_UserQueryParams..$LT$impl$u20$serde..de..Deserialize$u20$for$u20$guildpact..controller..user_controller..UserQueryParams$GT$..deserialize..__FieldVisitor$u20$as$u20$serde..de..Visitor$GT$9expecting17h11787cbb84ad48f0E
FN:62,_ZN4core3ptr13drop_in_place17hed80be000d42a4adE
FN:50,_ZN105_$LT$guildpact..controller..user_controller..create$u20$as$u20$actix_web..service..HttpServiceFactory$GT$8register6create28_$u7b$$u7b$closure$u7d$$u7d$17h91896ad4579d3f1fE
FN:18,_ZN259_$LT$guildpact..controller..user_controller.._IMPL_DESERIALIZE_FOR_BatchUserQueryParams..$LT$impl$u20$serde..de..Deserialize$u20$for$u20$guildpact..controller..user_controller..BatchUserQueryParams$GT$..deserialize..__Visitor$u20$as$u20$serde..de..Visitor$GT$9expecting17h44452230de9e8664E
FN:24,_ZN9guildpact10controller15user_controller142_$LT$impl$u20$core..convert..From$LT$guildpact..model..proto..user..CreatePlayerRequest$GT$$u20$for$u20$guildpact..model..user..CreateUser$GT$4from17h00fc16487ed722bcE
FN:18,_ZN261_$LT$guildpact..controller..user_controller.._IMPL_DESERIALIZE_FOR_BatchUserQueryParams..$LT$impl$u20$serde..de..Deserialize$u20$for$u20$guildpact..controller..user_controller..BatchUserQueryParams$GT$..deserialize..__Field$u20$as$u20$serde..de..Deserialize$GT$11deserialize17hb2fc4bfd94859b6eE
FN:24,_ZN9guildpact10controller15user_controller142_$LT$impl$u20$core..convert..From$LT$guildpact..model..proto..user..CreatePlayerRequest$GT$$u20$for$u20$guildpact..model..user..CreateUser$GT$4from17h467a28c67be1afd9E
FN:83,_ZN114_$LT$guildpact..controller..user_controller..get_users_by_id$u20$as$u20$actix_web..service..HttpServiceFactory$GT$8register15get_users_by_id17h7955ca2bede3c34bE
FN:114,_ZN9guildpact10controller15user_controller19configure_resources17h719dbbd8a54e1fafE
FN:92,_ZN114_$LT$guildpact..controller..user_controller..get_users_by_id$u20$as$u20$actix_web..service..HttpServiceFactory$GT$8register15get_users_by_id28_$u7b$$u7b$closure$u7d$$u7d$28_$u7b$$u7b$closure$u7d$$u7d$17h21a61a88172221ddE
FN:13,_ZN9guildpact10controller15user_controller37_IMPL_DESERIALIZE_FOR_UserQueryParams108_$LT$impl$u20$serde..de..Deserialize$u20$for$u20$guildpact..controller..user_controller..UserQueryParams$GT$11deserialize17h297bcd600e2d25dbE
FN:47,_ZN105_$LT$guildpact..controller..user_controller..create$u20$as$u20$actix_web..service..HttpServiceFactory$GT$8register6create17h492cec65add2b1ffE
FN:68,_ZN105_$LT$guildpact..controller..user_controller..update$u20$as$u20$actix_web..service..HttpServiceFactory$GT$8register17h46bb068173b86a40E
FN:50,_ZN4core3ptr13drop_in_place17hd54627e4b510b8e9E
FN:219,_ZN4core3ptr13drop_in_place17haa2640b8ebf10a83E
FN:18,_ZN264_$LT$guildpact..controller..user_controller.._IMPL_DESERIALIZE_FOR_BatchUserQueryParams..$LT$impl$u20$serde..de..Deserialize$u20$for$u20$guildpact..controller..user_controller..BatchUserQueryParams$GT$..deserialize..__FieldVisitor$u20$as$u20$serde..de..Visitor$GT$9visit_str17h8bc9d5ff8355c1b5E
FN:87,_ZN114_$LT$guildpact..controller..user_controller..get_users_by_id$u20$as$u20$actix_web..service..HttpServiceFactory$GT$8register15get_users_by_id28_$u7b$$u7b$closure$u7d$$u7d$17h2d1eb51f2c21ecdaE
FN:83,_ZN114_$LT$guildpact..controller..user_controller..get_users_by_id$u20$as$u20$actix_web..service..HttpServiceFactory$GT$8register15get_users_by_id17h1dc47c57fd345c86E
FN:18,_ZN259_$LT$guildpact..controller..user_controller.._IMPL_DESERIALIZE_FOR_BatchUserQueryParams..$LT$impl$u20$serde..de..Deserialize$u20$for$u20$guildpact..controller..user_controller..BatchUserQueryParams$GT$..deserialize..__Visitor$u20$as$u20$serde..de..Visitor$GT$9expecting17h1c7398a48a1939e1E
FN:74,_ZN105_$LT$guildpact..controller..user_controller..update$u20$as$u20$actix_web..service..HttpServiceFactory$GT$8register6update28_$u7b$$u7b$closure$u7d$$u7d$17hec3f5b60c1fd25bbE
FN:74,_ZN4core3ptr13drop_in_place17h1dad40bf9a002c84E
FN:104,_ZN105_$LT$guildpact..controller..user_controller..search$u20$as$u20$actix_web..service..HttpServiceFactory$GT$8register6search28_$u7b$$u7b$closure$u7d$$u7d$17h9f8aedb269f3c15bE
FN:46,_ZN105_$LT$guildpact..controller..user_controller..create$u20$as$u20$actix_web..service..HttpServiceFactory$GT$8register17h86db634def50bb4cE
FN:104,_ZN4core3ptr13drop_in_place17h05b9712eaa978e45E
FN:13,_ZN251_$LT$guildpact..controller..user_controller.._IMPL_DESERIALIZE_FOR_UserQueryParams..$LT$impl$u20$serde..de..Deserialize$u20$for$u20$guildpact..controller..user_controller..UserQueryParams$GT$..deserialize..__Field$u20$as$u20$serde..de..Deserialize$GT$11deserialize17h3b4c65b4d026899dE
FN:8,_ZN9guildpact10controller15user_controller34_IMPL_DESERIALIZE_FOR_UserPathInfo105_$LT$impl$u20$serde..de..Deserialize$u20$for$u20$guildpact..controller..user_controller..UserPathInfo$GT$11deserialize17h731746aee0e2faa7E
FN:47,_ZN105_$LT$guildpact..controller..user_controller..create$u20$as$u20$actix_web..service..HttpServiceFactory$GT$8register6create17hcef5e03bca14c3b2E
FN:130,_ZN9guildpact10controller15user_controller5tests19build_create_player17h047bcc800469f2c7E
FN:58,_ZN107_$LT$guildpact..controller..user_controller..retrieve$u20$as$u20$actix_web..service..HttpServiceFactory$GT$8register8retrieve17h67e8f7130adbce34E
FN:140,_ZN4core3ptr13drop_in_place17hf8140e6670a4553fE
FN:8,_ZN248_$LT$guildpact..controller..user_controller.._IMPL_DESERIALIZE_FOR_UserPathInfo..$LT$impl$u20$serde..de..Deserialize$u20$for$u20$guildpact..controller..user_controller..UserPathInfo$GT$..deserialize..__FieldVisitor$u20$as$u20$serde..de..Visitor$GT$9expecting17h67e34b8db8f93277E
FN:50,_ZN105_$LT$guildpact..controller..user_controller..create$u20$as$u20$actix_web..service..HttpServiceFactory$GT$8register6create28_$u7b$$u7b$closure$u7d$$u7d$17h74db4dc56b6c4199E
FN:13,_ZN249_$LT$guildpact..controller..user_controller.._IMPL_DESERIALIZE_FOR_UserQueryParams..$LT$impl$u20$serde..de..Deserialize$u20$for$u20$guildpact..controller..user_controller..UserQueryParams$GT$..deserialize..__Visitor$u20$as$u20$serde..de..Visitor$GT$9visit_map17h330aff2591dc54a2E
FN:99,_ZN105_$LT$guildpact..controller..user_controller..search$u20$as$u20$actix_web..service..HttpServiceFactory$GT$8register17h9dbf1a4b28b613fcE
FN:74,_ZN4core3ptr13drop_in_place17h5d6f15691417841aE
FN:8,_ZN243_$LT$guildpact..controller..user_controller.._IMPL_DESERIALIZE_FOR_UserPathInfo..$LT$impl$u20$serde..de..Deserialize$u20$for$u20$guildpact..controller..user_controller..UserPathInfo$GT$..deserialize..__Visitor$u20$as$u20$serde..de..Visitor$GT$9expecting17h8514129f53907187E
FN:36,_ZN9guildpact10controller15user_controller52_$LT$impl$u20$guildpact..model..user..UpdateUser$GT$4from17h4ba27b22aa703213E
FN:8,_ZN243_$LT$guildpact..controller..user_controller.._IMPL_DESERIALIZE_FOR_UserPathInfo..$LT$impl$u20$serde..de..Deserialize$u20$for$u20$guildpact..controller..user_controller..UserPathInfo$GT$..deserialize..__Visitor$u20$as$u20$serde..de..Visitor$GT$9visit_map17hf0987e24e21d3c44E
FN:18,_ZN264_$LT$guildpact..controller..user_controller.._IMPL_DESERIALIZE_FOR_BatchUserQueryParams..$LT$impl$u20$serde..de..Deserialize$u20$for$u20$guildpact..controller..user_controller..BatchUserQueryParams$GT$..deserialize..__FieldVisitor$u20$as$u20$serde..de..Visitor$GT$9expecting17hf089ea398425e205E
FN:58,_ZN107_$LT$guildpact..controller..user_controller..retrieve$u20$as$u20$actix_web..service..HttpServiceFactory$GT$8register8retrieve17he7550f63d0fe125dE
FN:257,_ZN9guildpact10controller15user_controller5tests25test_search_user_by_alias28_$u7b$$u7b$closure$u7d$$u7d$17h1f53de5f466eb0beE
FN:50,_ZN105_$LT$guildpact..controller..user_controller..create$u20$as$u20$actix_web..service..HttpServiceFactory$GT$8register6create28_$u7b$$u7b$closure$u7d$$u7d$17he1ae5eff4a6e9226E
FN:74,_ZN105_$LT$guildpact..controller..user_controller..update$u20$as$u20$actix_web..service..HttpServiceFactory$GT$8register6update28_$u7b$$u7b$closure$u7d$$u7d$17h879cae2276970f06E
FN:18,_ZN259_$LT$guildpact..controller..user_controller.._IMPL_DESERIALIZE_FOR_BatchUserQueryParams..$LT$impl$u20$serde..de..Deserialize$u20$for$u20$guildpact..controller..user_controller..BatchUserQueryParams$GT$..deserialize..__Visitor$u20$as$u20$serde..de..Visitor$GT$9visit_map17h278a31f1d8e2aba3E
FN:62,_ZN107_$LT$guildpact..controller..user_controller..retrieve$u20$as$u20$actix_web..service..HttpServiceFactory$GT$8register8retrieve28_$u7b$$u7b$closure$u7d$$u7d$17hc6a84bf20935a23aE
FN:13,_ZN254_$LT$guildpact..controller..user_controller.._IMPL_DESERIALIZE_FOR_UserQueryParams..$LT$impl$u20$serde..de..Deserialize$u20$for$u20$guildpact..controller..user_controller..UserQueryParams$GT$..deserialize..__FieldVisitor$u20$as$u20$serde..de..Visitor$GT$9visit_str17hc6dc04daec1a6ecfE
FN:68,_ZN105_$LT$guildpact..controller..user_controller..update$u20$as$u20$actix_web..service..HttpServiceFactory$GT$8register17hf86e2dadbe3ca44cE
FN:8,_ZN245_$LT$guildpact..controller..user_controller.._IMPL_DESERIALIZE_FOR_UserPathInfo..$LT$impl$u20$serde..de..Deserialize$u20$for$u20$guildpact..controller..user_controller..UserPathInfo$GT$..deserialize..__Field$u20$as$u20$serde..de..Deserialize$GT$11deserialize17h7e5e716775b60028E
FN:87,_ZN114_$LT$guildpact..controller..user_controller..get_users_by_id$u20$as$u20$actix_web..service..HttpServiceFactory$GT$8register15get_users_by_id28_$u7b$$u7b$closure$u7d$$u7d$17ha50e9fa3fb59809dE
FN:8,_ZN243_$LT$guildpact..controller..user_controller.._IMPL_DESERIALIZE_FOR_UserPathInfo..$LT$impl$u20$serde..de..Deserialize$u20$for$u20$guildpact..controller..user_controller..UserPathInfo$GT$..deserialize..__Visitor$u20$as$u20$serde..de..Visitor$GT$9expecting17h404be87e23a389e1E
FN:219,_ZN9guildpact10controller15user_controller5tests22test_get_user_with_uid28_$u7b$$u7b$closure$u7d$$u7d$17hc0b5a3577fc24652E
FN:74,_ZN105_$LT$guildpact..controller..user_controller..update$u20$as$u20$actix_web..service..HttpServiceFactory$GT$8register6update28_$u7b$$u7b$closure$u7d$$u7d$17hc4978e3d369d2443E
FN:36,_ZN9guildpact10controller15user_controller52_$LT$impl$u20$guildpact..model..user..UpdateUser$GT$4from17hf39629e41db72348E
FNDA:0,_ZN105_$LT$guildpact..controller..user_controller..search$u20$as$u20$actix_web..service..HttpServiceFactory$GT$8register17h0dcecf36b58e4682E
FNDA:0,_ZN9guildpact10controller15user_controller37_IMPL_DESERIALIZE_FOR_UserQueryParams108_$LT$impl$u20$serde..de..Deserialize$u20$for$u20$guildpact..controller..user_controller..UserQueryParams$GT$11deserialize17hf0576d927bd35e2aE
FNDA:0,_ZN107_$LT$guildpact..controller..user_controller..retrieve$u20$as$u20$actix_web..service..HttpServiceFactory$GT$8register8retrieve28_$u7b$$u7b$closure$u7d$$u7d$17h88a0d12ec1679ddaE
FNDA:0,_ZN114_$LT$guildpact..controller..user_controller..get_users_by_id$u20$as$u20$actix_web..service..HttpServiceFactory$GT$8register17h6e2f8c71430d15dfE
FNDA:0,_ZN9guildpact10controller15user_controller42_IMPL_DESERIALIZE_FOR_BatchUserQueryParams113_$LT$impl$u20$serde..de..Deserialize$u20$for$u20$guildpact..controller..user_controller..BatchUserQueryParams$GT$11deserialize17h996236ccf3bebce7E
FNDA:0,_ZN114_$LT$guildpact..controller..user_controller..get_users_by_id$u20$as$u20$actix_web..service..HttpServiceFactory$GT$8register15get_users_by_id28_$u7b$$u7b$closure$u7d$$u7d$17hecd0407dd0c8c209E
FNDA:0,_ZN245_$LT$guildpact..controller..user_controller.._IMPL_DESERIALIZE_FOR_UserPathInfo..$LT$impl$u20$serde..de..Deserialize$u20$for$u20$guildpact..controller..user_controller..UserPathInfo$GT$..deserialize..__Field$u20$as$u20$serde..de..Deserialize$GT$11deserialize17h8b41d960c46d1396E
FNDA:1,_ZN9guildpact10controller15user_controller5tests16test_update_user28_$u7b$$u7b$closure$u7d$$u7d$17h0490276a54428404E
FNDA:1,_ZN248_$LT$guildpact..controller..user_controller.._IMPL_DESERIALIZE_FOR_UserPathInfo..$LT$impl$u20$serde..de..Deserialize$u20$for$u20$guildpact..controller..user_controller..UserPathInfo$GT$..deserialize..__FieldVisitor$u20$as$u20$serde..de..Visitor$GT$9visit_str17ha40b846639c2430aE
FNDA:0,_ZN254_$LT$guildpact..controller..user_controller.._IMPL_DESERIALIZE_FOR_UserQueryParams..$LT$impl$u20$serde..de..Deserialize$u20$for$u20$guildpact..controller..user_controller..UserQueryParams$GT$..deserialize..__FieldVisitor$u20$as$u20$serde..de..Visitor$GT$9visit_str17h9fbd795c97ec180fE
FNDA:1,_ZN254_$LT$guildpact..controller..user_controller.._IMPL_DESERIALIZE_FOR_UserQueryParams..$LT$impl$u20$serde..de..Deserialize$u20$for$u20$guildpact..controller..user_controller..UserQueryParams$GT$..deserialize..__FieldVisitor$u20$as$u20$serde..de..Visitor$GT$9visit_str17h703fc2e93a4227aeE
FNDA:1,_ZN9guildpact10controller15user_controller5tests25test_search_user_by_alias28_$u7b$$u7b$closure$u7d$$u7d$17h6b52023e20c9e700E
FNDA:0,_ZN105_$LT$guildpact..controller..user_controller..update$u20$as$u20$actix_web..service..HttpServiceFactory$GT$8register17ha6a263477539493eE
FNDA:0,_ZN248_$LT$guildpact..controller..user_controller.._IMPL_DESERIALIZE_FOR_UserPathInfo..$LT$impl$u20$serde..de..Deserialize$u20$for$u20$guildpact..controller..user_controller..UserPathInfo$GT$..deserialize..__FieldVisitor$u20$as$u20$serde..de..Visitor$GT$9visit_str17hb59e49c3353a978dE
FNDA:0,_ZN248_$LT$guildpact..controller..user_controller.._IMPL_DESERIALIZE_FOR_UserPathInfo..$LT$impl$u20$serde..de..Deserialize$u20$for$u20$guildpact..controller..user_controller..UserPathInfo$GT$..deserialize..__FieldVisitor$u20$as$u20$serde..de..Visitor$GT$9visit_str17h935af46ed750151fE
FNDA:0,_ZN107_$LT$guildpact..controller..user_controller..retrieve$u20$as$u20$actix_web..service..HttpServiceFactory$GT$8register17h56234be79ab8679fE
FNDA:0,_ZN9guildpact10controller15user_controller34_IMPL_DESERIALIZE_FOR_UserPathInfo105_$LT$impl$u20$serde..de..Deserialize$u20$for$u20$guildpact..controller..user_controller..UserPathInfo$GT$11deserialize17he0992f9b41c98c4bE
FNDA:0,_ZN249_$LT$guildpact..controller..user_controller.._IMPL_DESERIALIZE_FOR_UserQueryParams..$LT$impl$u20$serde..de..Deserialize$u20$for$u20$guildpact..controller..user_controller..UserQueryParams$GT$..deserialize..__Visitor$u20$as$u20$serde..de..Visitor$GT$9visit_map17hb43b5a50cf6b654dE
FNDA:0,_ZN4core3ptr13drop_in_place17h185b0a06ce61284aE
FNDA:1,_ZN105_$LT$guildpact..controller..user_controller..search$u20$as$u20$actix_web..service..HttpServiceFactory$GT$8register6search17h6b5560f2546bcab9E
FNDA:1,_ZN105_$LT$guildpact..controller..user_controller..create$u20$as$u20$actix_web..service..HttpServiceFactory$GT$8register17h602a1c67838258d0E
FNDA:0,_ZN264_$LT$guildpact..controller..user_controller.._IMPL_DESERIALIZE_FOR_BatchUserQueryParams..$LT$impl$u20$serde..de..Deserialize$u20$for$u20$guildpact..controller..user_controller..BatchUserQueryParams$GT$..deserialize..__FieldVisitor$u20$as$u20$serde..de..Visitor$GT$9expecting17hb19a7faaa713ddedE
FNDA:0,_ZN114_$LT$guildpact..controller..user_controller..get_users_by_id$u20$as$u20$actix_web..service..HttpServiceFactory$GT$8register15get_users_by_id28_$u7b$$u7b$closure$u7d$$u7d$28_$u7b$$u7b$closure$u7d$$u7d$17h895643fb2ea5f012E
FNDA:0,_ZN249_$LT$guildpact..controller..user_controller.._IMPL_DESERIALIZE_FOR_UserQueryParams..$LT$impl$u20$serde..de..Deserialize$u20$for$u20$guildpact..controller..user_controller..UserQueryParams$GT$..deserialize..__Visitor$u20$as$u20$serde..de..Visitor$GT$9expecting17hdea4e56627361d8cE
FNDA:0,_ZN264_$LT$guildpact..controller..user_controller.._IMPL_DESERIALIZE_FOR_BatchUserQueryParams..$LT$impl$u20$serde..de..Deserialize$u20$for$u20$guildpact..controller..user_controller..BatchUserQueryParams$GT$..deserialize..__FieldVisitor$u20$as$u20$serde..de..Visitor$GT$9visit_str17h65db073429058ba4E
FNDA:0,_ZN105_$LT$guildpact..controller..user_controller..search$u20$as$u20$actix_web..service..HttpServiceFactory$GT$8register6search17hf3b433f7587e4bc1E
FNDA:1,_ZN114_$LT$guildpact..controller..user_controller..get_users_by_id$u20$as$u20$actix_web..service..HttpServiceFactory$GT$8register17hf1dae24b3eb9b680E
FNDA:1,_ZN4core3ptr13drop_in_place17h2dcff87eda1c857bE
FNDA:1,_ZN9guildpact10controller15user_controller5tests16test_update_user28_$u7b$$u7b$closure$u7d$$u7d$17h0d7588f28719374bE
FNDA:0,_ZN243_$LT$guildpact..controller..user_controller.._IMPL_DESERIALIZE_FOR_UserPathInfo..$LT$impl$u20$serde..de..Deserialize$u20$for$u20$guildpact..controller..user_controller..UserPathInfo$GT$..deserialize..__Visitor$u20$as$u20$serde..de..Visitor$GT$9visit_map17h57c8e261d201504cE
FNDA:1,_ZN107_$LT$guildpact..controller..user_controller..retrieve$u20$as$u20$actix_web..service..HttpServiceFactory$GT$8register8retrieve17ha8c1a590fcf8dbc9E
FNDA:0,_ZN9guildpact10controller15user_controller42_IMPL_DESERIALIZE_FOR_BatchUserQueryParams113_$LT$impl$u20$serde..de..Deserialize$u20$for$u20$guildpact..controller..user_controller..BatchUserQueryParams$GT$11deserialize17h2518ca4fb74ee0d1E
FNDA:0,_ZN4core3ptr13drop_in_place17ha7784578d55e7dd0E
FNDA:1,_ZN4core3ptr13drop_in_place17hc5c08f81f439c18cE
FNDA:0,_ZN259_$LT$guildpact..controller..user_controller.._IMPL_DESERIALIZE_FOR_BatchUserQueryParams..$LT$impl$u20$serde..de..Deserialize$u20$for$u20$guildpact..controller..user_controller..BatchUserQueryParams$GT$..deserialize..__Visitor$u20$as$u20$serde..de..Visitor$GT$9expecting17ha26ce529a926a390E
FNDA:0,_ZN105_$LT$guildpact..controller..user_controller..search$u20$as$u20$actix_web..service..HttpServiceFactory$GT$8register6search28_$u7b$$u7b$closure$u7d$$u7d$17h481b7ffe09662433E
FNDA:1,_ZN4core3ptr13drop_in_place17h39edc0f8e470fb70E
FNDA:0,_ZN105_$LT$guildpact..controller..user_controller..search$u20$as$u20$actix_web..service..HttpServiceFactory$GT$8register6search28_$u7b$$u7b$closure$u7d$$u7d$17h995545c83192735fE
FNDA:1,_ZN107_$LT$guildpact..controller..user_controller..retrieve$u20$as$u20$actix_web..service..HttpServiceFactory$GT$8register17h8d0a641e93941533E
FNDA:0,_ZN261_$LT$guildpact..controller..user_controller.._IMPL_DESERIALIZE_FOR_BatchUserQueryParams..$LT$impl$u20$serde..de..Deserialize$u20$for$u20$guildpact..controller..user_controller..BatchUserQueryParams$GT$..deserialize..__Field$u20$as$u20$serde..de..Deserialize$GT$11deserialize17h179f26435d51de2aE
FNDA:0,_ZN251_$LT$guildpact..controller..user_controller.._IMPL_DESERIALIZE_FOR_UserQueryParams..$LT$impl$u20$serde..de..Deserialize$u20$for$u20$guildpact..controller..user_controller..UserQueryParams$GT$..deserialize..__Field$u20$as$u20$serde..de..Deserialize$GT$11deserialize17hd8c4826070f7dc6eE
FNDA:1,_ZN4core3ptr13drop_in_place17h1d6bca593d0b48edE
FNDA:0,_ZN254_$LT$guildpact..controller..user_controller.._IMPL_DESERIALIZE_FOR_UserQueryParams..$LT$impl$u20$serde..de..Deserialize$u20$for$u20$guildpact..controller..user_controller..UserQueryParams$GT$..deserialize..__FieldVisitor$u20$as$u20$serde..de..Visitor$GT$9expecting17hc6af8a7737f21e80E
FNDA:0,_ZN4core3ptr13drop_in_place17h624b01549e15d1ddE
FNDA:0,_ZN264_$LT$guildpact..controller..user_controller.._IMPL_DESERIALIZE_FOR_BatchUserQueryParams..$LT$impl$u20$serde..de..Deserialize$u20$for$u20$guildpact..controller..user_controller..BatchUserQueryParams$GT$..deserialize..__FieldVisitor$u20$as$u20$serde..de..Visitor$GT$9visit_str17hf656d771212d2a32E
FNDA:0,_ZN9guildpact10controller15user_controller42_IMPL_DESERIALIZE_FOR_BatchUserQueryParams113_$LT$impl$u20$serde..de..Deserialize$u20$for$u20$guildpact..controller..user_controller..BatchUserQueryParams$GT$11deserialize17h749285a1d1ec1e16E
FNDA:0,_ZN254_$LT$guildpact..controller..user_controller.._IMPL_DESERIALIZE_FOR_UserQueryParams..$LT$impl$u20$serde..de..Deserialize$u20$for$u20$guildpact..controller..user_controller..UserQueryParams$GT$..deserialize..__FieldVisitor$u20$as$u20$serde..de..Visitor$GT$9expecting17he038e451029ab3b4E
FNDA:1,_ZN105_$LT$guildpact..controller..user_controller..update$u20$as$u20$actix_web..service..HttpServiceFactory$GT$8register6update17hcb82ac4da7b21197E
FNDA:1,_ZN9guildpact10controller15user_controller5tests22test_get_user_with_uid28_$u7b$$u7b$closure$u7d$$u7d$17hbb1ee8915414ce8cE
FNDA:1,_ZN107_$LT$guildpact..controller..user_controller..retrieve$u20$as$u20$actix_web..service..HttpServiceFactory$GT$8register8retrieve28_$u7b$$u7b$closure$u7d$$u7d$17h3c7b82a72327b486E
FNDA:0,_ZN243_$LT$guildpact..controller..user_controller.._IMPL_DESERIALIZE_FOR_UserPathInfo..$LT$impl$u20$serde..de..Deserialize$u20$for$u20$guildpact..controller..user_controller..UserPathInfo$GT$..deserialize..__Visitor$u20$as$u20$serde..de..Visitor$GT$9visit_map17hdfadac6df13c13ebE
FNDA:0,_ZN9guildpact10controller15user_controller37_IMPL_DESERIALIZE_FOR_UserQueryParams108_$LT$impl$u20$serde..de..Deserialize$u20$for$u20$guildpact..controller..user_controller..UserQueryParams$GT$11deserialize17h02889dc807066602E
FNDA:1,_ZN9guildpact10controller15user_controller5tests22test_get_user_with_uid17h7d204ec2ae728fedE
FNDA:1,_ZN251_$LT$guildpact..controller..user_controller.._IMPL_DESERIALIZE_FOR_UserQueryParams..$LT$impl$u20$serde..de..Deserialize$u20$for$u20$guildpact..controller..user_controller..UserQueryParams$GT$..deserialize..__Field$u20$as$u20$serde..de..Deserialize$GT$11deserialize17h013dff5e752be68dE
FNDA:0,_ZN114_$LT$guildpact..controller..user_controller..get_users_by_id$u20$as$u20$actix_web..service..HttpServiceFactory$GT$8register15get_users_by_id28_$u7b$$u7b$closure$u7d$$u7d$28_$u7b$$u7b$closure$u7d$$u7d$17h7e2bd1ee8cc1773fE
FNDA:0,_ZN9guildpact10controller15user_controller142_$LT$impl$u20$core..convert..From$LT$guildpact..model..proto..user..CreatePlayerRequest$GT$$u20$for$u20$guildpact..model..user..CreateUser$GT$4from17h47536464be4c9128E
FNDA:1,_ZN245_$LT$guildpact..controller..user_controller.._IMPL_DESERIALIZE_FOR_UserPathInfo..$LT$impl$u20$serde..de..Deserialize$u20$for$u20$guildpact..controller..user_controller..UserPathInfo$GT$..deserialize..__Field$u20$as$u20$serde..de..Deserialize$GT$11deserialize17hb4403c2af8b8c390E
FNDA:0,_ZN259_$LT$guildpact..controller..user_controller.._IMPL_DESERIALIZE_FOR_BatchUserQueryParams..$LT$impl$u20$serde..de..Deserialize$u20$for$u20$guildpact..controller..user_controller..BatchUserQueryParams$GT$..deserialize..__Visitor$u20$as$u20$serde..de..Visitor$GT$9visit_map17h70073c00ecb20c3dE
FNDA:1,_ZN9guildpact10controller15user_controller5tests16test_create_user28_$u7b$$u7b$closure$u7d$$u7d$17hbb057d7ffbefc3e6E
FNDA:0,_ZN114_$LT$guildpact..controller..user_controller..get_users_by_id$u20$as$u20$actix_web..service..HttpServiceFactory$GT$8register15get_users_by_id17h8d7c2ce7eacb7f22E
FNDA:0,_ZN249_$LT$guildpact..controller..user_controller.._IMPL_DESERIALIZE_FOR_UserQueryParams..$LT$impl$u20$serde..de..Deserialize$u20$for$u20$guildpact..controller..user_controller..UserQueryParams$GT$..deserialize..__Visitor$u20$as$u20$serde..de..Visitor$GT$9visit_map17h8c3d03b46ae61318E
FNDA:1,_ZN9guildpact10controller15user_controller34_IMPL_DESERIALIZE_FOR_UserPathInfo105_$LT$impl$u20$serde..de..Deserialize$u20$for$u20$guildpact..controller..user_controller..UserPathInfo$GT$11deserialize17hb5bd06c9317ad915E
FNDA:0,_ZN248_$LT$guildpact..controller..user_controller.._IMPL_DESERIALIZE_FOR_UserPathInfo..$LT$impl$u20$serde..de..Deserialize$u20$for$u20$guildpact..controller..user_controller..UserPathInfo$GT$..deserialize..__FieldVisitor$u20$as$u20$serde..de..Visitor$GT$9expecting17hcaecc3b08f894562E
FNDA:1,_ZN9guildpact10controller15user_controller5tests25test_search_user_by_alias17h722deae3b2e201a3E
FNDA:0,_ZN249_$LT$guildpact..controller..user_controller.._IMPL_DESERIALIZE_FOR_UserQueryParams..$LT$impl$u20$serde..de..Deserialize$u20$for$u20$guildpact..controller..user_controller..UserQueryParams$GT$..deserialize..__Visitor$u20$as$u20$serde..de..Visitor$GT$9expecting17ha340bd706c56c2eeE
FNDA:0,_ZN105_$LT$guildpact..controller..user_controller..update$u20$as$u20$actix_web..service..HttpServiceFactory$GT$8register6update17h1f9de60e947855b4E
FNDA:1,_ZN9guildpact10controller15user_controller5tests16test_update_user17hca00d1de42a5d35cE
FNDA:0,_ZN259_$LT$guildpact..controller..user_controller.._IMPL_DESERIALIZE_FOR_BatchUserQueryParams..$LT$impl$u20$serde..de..Deserialize$u20$for$u20$guildpact..controller..user_controller..BatchUserQueryParams$GT$..deserialize..__Visitor$u20$as$u20$serde..de..Visitor$GT$9visit_map17h314f3c17a4419e3aE
FNDA:0,_ZN248_$LT$guildpact..controller..user_controller.._IMPL_DESERIALIZE_FOR_UserPathInfo..$LT$impl$u20$serde..de..Deserialize$u20$for$u20$guildpact..controller..user_controller..UserPathInfo$GT$..deserialize..__FieldVisitor$u20$as$u20$serde..de..Visitor$GT$9expecting17hba3c677103b7201aE
FNDA:1,_ZN9guildpact10controller15user_controller5tests16test_create_user28_$u7b$$u7b$closure$u7d$$u7d$17hd1de161055f92a86E
FNDA:0,_ZN105_$LT$guildpact..controller..user_controller..search$u20$as$u20$actix_web..service..HttpServiceFactory$GT$8register17h8737cd7948dd75aeE
FNDA:0,_ZN264_$LT$guildpact..controller..user_controller.._IMPL_DESERIALIZE_FOR_BatchUserQueryParams..$LT$impl$u20$serde..de..Deserialize$u20$for$u20$guildpact..controller..user_controller..BatchUserQueryParams$GT$..deserialize..__FieldVisitor$u20$as$u20$serde..de..Visitor$GT$9expecting17h09cf4dc4a7eb5a8fE
FNDA:0,_ZN9guildpact10controller15user_controller19configure_resources17hcff43f59c5fcfe2bE
FNDA:0,_ZN105_$LT$guildpact..controller..user_controller..create$u20$as$u20$actix_web..service..HttpServiceFactory$GT$8register17h86c0eb93719d59b5E
FNDA:0,_ZN114_$LT$guildpact..controller..user_controller..get_users_by_id$u20$as$u20$actix_web..service..HttpServiceFactory$GT$8register17h1dcca96696b0780eE
FNDA:0,_ZN4core3ptr13drop_in_place17hee8169ed984fc5eeE
FNDA:1,_ZN105_$LT$guildpact..controller..user_controller..create$u20$as$u20$actix_web..service..HttpServiceFactory$GT$8register6create17hcfb8f4bae88073feE
FNDA:0,_ZN105_$LT$guildpact..controller..user_controller..update$u20$as$u20$actix_web..service..HttpServiceFactory$GT$8register6update17h2d242773bc356262E
FNDA:0,_ZN249_$LT$guildpact..controller..user_controller.._IMPL_DESERIALIZE_FOR_UserQueryParams..$LT$impl$u20$serde..de..Deserialize$u20$for$u20$guildpact..controller..user_controller..UserQueryParams$GT$..deserialize..__Visitor$u20$as$u20$serde..de..Visitor$GT$9expecting17hffe7e8c864cfb0b6E
FNDA:0,_ZN105_$LT$guildpact..controller..user_controller..search$u20$as$u20$actix_web..service..HttpServiceFactory$GT$8register6search17h4334f763d67df551E
FNDA:0,_ZN4core3ptr13drop_in_place17h63310f1581882cb6E
FNDA:0,_ZN107_$LT$guildpact..controller..user_controller..retrieve$u20$as$u20$actix_web..service..HttpServiceFactory$GT$8register17hdf6a0c9b5d7107ceE
FNDA:0,_ZN4core3ptr13drop_in_place17hf7adb87341fa9f3aE
FNDA:0,_ZN4core3ptr13drop_in_place17hdd86f103b401bec7E
FNDA:1,_ZN9guildpact10controller15user_controller5tests16test_create_user17hbe7403f42698acc0E
FNDA:0,_ZN4core3ptr13drop_in_place17he44cdbcaee2ec993E
FNDA:0,_ZN243_$LT$guildpact..controller..user_controller.._IMPL_DESERIALIZE_FOR_UserPathInfo..$LT$impl$u20$serde..de..Deserialize$u20$for$u20$guildpact..controller..user_controller..UserPathInfo$GT$..deserialize..__Visitor$u20$as$u20$serde..de..Visitor$GT$9expecting17h47d67ee87f26b4bcE
FNDA:0,_ZN9guildpact10controller15user_controller19configure_resources17hc9acdc5684ff2069E
FNDA:0,_ZN9guildpact10controller15user_controller52_$LT$impl$u20$guildpact..model..user..UpdateUser$GT$4from17h070cb447fe1bed38E
FNDA:0,_ZN261_$LT$guildpact..controller..user_controller.._IMPL_DESERIALIZE_FOR_BatchUserQueryParams..$LT$impl$u20$serde..de..Deserialize$u20$for$u20$guildpact..controller..user_controller..BatchUserQueryParams$GT$..deserialize..__Field$u20$as$u20$serde..de..Deserialize$GT$11deserialize17h865e31344bfc10eaE
FNDA:0,_ZN254_$LT$guildpact..controller..user_controller.._IMPL_DESERIALIZE_FOR_UserQueryParams..$LT$impl$u20$serde..de..Deserialize$u20$for$u20$guildpact..controller..user_controller..UserQueryParams$GT$..deserialize..__FieldVisitor$u20$as$u20$serde..de..Visitor$GT$9expecting17h11787cbb84ad48f0E
FNDA:1,_ZN4core3ptr13drop_in_place17hed80be000d42a4adE
FNDA:0,_ZN105_$LT$guildpact..controller..user_controller..create$u20$as$u20$actix_web..service..HttpServiceFactory$GT$8register6create28_$u7b$$u7b$closure$u7d$$u7d$17h91896ad4579d3f1fE
FNDA:0,_ZN259_$LT$guildpact..controller..user_controller.._IMPL_DESERIALIZE_FOR_BatchUserQueryParams..$LT$impl$u20$serde..de..Deserialize$u20$for$u20$guildpact..controller..user_controller..BatchUserQueryParams$GT$..deserialize..__Visitor$u20$as$u20$serde..de..Visitor$GT$9expecting17h44452230de9e8664E
FNDA:0,_ZN9guildpact10controller15user_controller142_$LT$impl$u20$core..convert..From$LT$guildpact..model..proto..user..CreatePlayerRequest$GT$$u20$for$u20$guildpact..model..user..CreateUser$GT$4from17h00fc16487ed722bcE
FNDA:0,_ZN261_$LT$guildpact..controller..user_controller.._IMPL_DESERIALIZE_FOR_BatchUserQueryParams..$LT$impl$u20$serde..de..Deserialize$u20$for$u20$guildpact..controller..user_controller..BatchUserQueryParams$GT$..deserialize..__Field$u20$as$u20$serde..de..Deserialize$GT$11deserialize17hb2fc4bfd94859b6eE
FNDA:1,_ZN9guildpact10controller15user_controller142_$LT$impl$u20$core..convert..From$LT$guildpact..model..proto..user..CreatePlayerRequest$GT$$u20$for$u20$guildpact..model..user..CreateUser$GT$4from17h467a28c67be1afd9E
FNDA:0,_ZN114_$LT$guildpact..controller..user_controller..get_users_by_id$u20$as$u20$actix_web..service..HttpServiceFactory$GT$8register15get_users_by_id17h7955ca2bede3c34bE
FNDA:1,_ZN9guildpact10controller15user_controller19configure_resources17h719dbbd8a54e1fafE
FNDA:0,_ZN114_$LT$guildpact..controller..user_controller..get_users_by_id$u20$as$u20$actix_web..service..HttpServiceFactory$GT$8register15get_users_by_id28_$u7b$$u7b$closure$u7d$$u7d$28_$u7b$$u7b$closure$u7d$$u7d$17h21a61a88172221ddE
FNDA:1,_ZN9guildpact10controller15user_controller37_IMPL_DESERIALIZE_FOR_UserQueryParams108_$LT$impl$u20$serde..de..Deserialize$u20$for$u20$guildpact..controller..user_controller..UserQueryParams$GT$11deserialize17h297bcd600e2d25dbE
FNDA:0,_ZN105_$LT$guildpact..controller..user_controller..create$u20$as$u20$actix_web..service..HttpServiceFactory$GT$8register6create17h492cec65add2b1ffE
FNDA:0,_ZN105_$LT$guildpact..controller..user_controller..update$u20$as$u20$actix_web..service..HttpServiceFactory$GT$8register17h46bb068173b86a40E
FNDA:0,_ZN4core3ptr13drop_in_place17hd54627e4b510b8e9E
FNDA:1,_ZN4core3ptr13drop_in_place17haa2640b8ebf10a83E
FNDA:0,_ZN264_$LT$guildpact..controller..user_controller.._IMPL_DESERIALIZE_FOR_BatchUserQueryParams..$LT$impl$u20$serde..de..Deserialize$u20$for$u20$guildpact..controller..user_controller..BatchUserQueryParams$GT$..deserialize..__FieldVisitor$u20$as$u20$serde..de..Visitor$GT$9visit_str17h8bc9d5ff8355c1b5E
FNDA:0,_ZN114_$LT$guildpact..controller..user_controller..get_users_by_id$u20$as$u20$actix_web..service..HttpServiceFactory$GT$8register15get_users_by_id28_$u7b$$u7b$closure$u7d$$u7d$17h2d1eb51f2c21ecdaE
FNDA:0,_ZN114_$LT$guildpact..controller..user_controller..get_users_by_id$u20$as$u20$actix_web..service..HttpServiceFactory$GT$8register15get_users_by_id17h1dc47c57fd345c86E
FNDA:0,_ZN259_$LT$guildpact..controller..user_controller.._IMPL_DESERIALIZE_FOR_BatchUserQueryParams..$LT$impl$u20$serde..de..Deserialize$u20$for$u20$guildpact..controller..user_controller..BatchUserQueryParams$GT$..deserialize..__Visitor$u20$as$u20$serde..de..Visitor$GT$9expecting17h1c7398a48a1939e1E
FNDA:0,_ZN105_$LT$guildpact..controller..user_controller..update$u20$as$u20$actix_web..service..HttpServiceFactory$GT$8register6update28_$u7b$$u7b$closure$u7d$$u7d$17hec3f5b60c1fd25bbE
FNDA:1,_ZN4core3ptr13drop_in_place17h1dad40bf9a002c84E
FNDA:1,_ZN105_$LT$guildpact..controller..user_controller..search$u20$as$u20$actix_web..service..HttpServiceFactory$GT$8register6search28_$u7b$$u7b$closure$u7d$$u7d$17h9f8aedb269f3c15bE
FNDA:0,_ZN105_$LT$guildpact..controller..user_controller..create$u20$as$u20$actix_web..service..HttpServiceFactory$GT$8register17h86db634def50bb4cE
FNDA:0,_ZN4core3ptr13drop_in_place17h05b9712eaa978e45E
FNDA:0,_ZN251_$LT$guildpact..controller..user_controller.._IMPL_DESERIALIZE_FOR_UserQueryParams..$LT$impl$u20$serde..de..Deserialize$u20$for$u20$guildpact..controller..user_controller..UserQueryParams$GT$..deserialize..__Field$u20$as$u20$serde..de..Deserialize$GT$11deserialize17h3b4c65b4d026899dE
FNDA:0,_ZN9guildpact10controller15user_controller34_IMPL_DESERIALIZE_FOR_UserPathInfo105_$LT$impl$u20$serde..de..Deserialize$u20$for$u20$guildpact..controller..user_controller..UserPathInfo$GT$11deserialize17h731746aee0e2faa7E
FNDA:0,_ZN105_$LT$guildpact..controller..user_controller..create$u20$as$u20$actix_web..service..HttpServiceFactory$GT$8register6create17hcef5e03bca14c3b2E
FNDA:1,_ZN9guildpact10controller15user_controller5tests19build_create_player17h047bcc800469f2c7E
FNDA:0,_ZN107_$LT$guildpact..controller..user_controller..retrieve$u20$as$u20$actix_web..service..HttpServiceFactory$GT$8register8retrieve17h67e8f7130adbce34E
FNDA:1,_ZN4core3ptr13drop_in_place17hf8140e6670a4553fE
FNDA:0,_ZN248_$LT$guildpact..controller..user_controller.._IMPL_DESERIALIZE_FOR_UserPathInfo..$LT$impl$u20$serde..de..Deserialize$u20$for$u20$guildpact..controller..user_controller..UserPathInfo$GT$..deserialize..__FieldVisitor$u20$as$u20$serde..de..Visitor$GT$9expecting17h67e34b8db8f93277E
FNDA:1,_ZN105_$LT$guildpact..controller..user_controller..create$u20$as$u20$actix_web..service..HttpServiceFactory$GT$8register6create28_$u7b$$u7b$closure$u7d$$u7d$17h74db4dc56b6c4199E
FNDA:1,_ZN249_$LT$guildpact..controller..user_controller.._IMPL_DESERIALIZE_FOR_UserQueryParams..$LT$impl$u20$serde..de..Deserialize$u20$for$u20$guildpact..controller..user_controller..UserQueryParams$GT$..deserialize..__Visitor$u20$as$u20$serde..de..Visitor$GT$9visit_map17h330aff2591dc54a2E
FNDA:1,_ZN105_$LT$guildpact..controller..user_controller..search$u20$as$u20$actix_web..service..HttpServiceFactory$GT$8register17h9dbf1a4b28b613fcE
FNDA:0,_ZN4core3ptr13drop_in_place17h5d6f15691417841aE
FNDA:0,_ZN243_$LT$guildpact..controller..user_controller.._IMPL_DESERIALIZE_FOR_UserPathInfo..$LT$impl$u20$serde..de..Deserialize$u20$for$u20$guildpact..controller..user_controller..UserPathInfo$GT$..deserialize..__Visitor$u20$as$u20$serde..de..Visitor$GT$9expecting17h8514129f53907187E
FNDA:0,_ZN9guildpact10controller15user_controller52_$LT$impl$u20$guildpact..model..user..UpdateUser$GT$4from17h4ba27b22aa703213E
FNDA:1,_ZN243_$LT$guildpact..controller..user_controller.._IMPL_DESERIALIZE_FOR_UserPathInfo..$LT$impl$u20$serde..de..Deserialize$u20$for$u20$guildpact..controller..user_controller..UserPathInfo$GT$..deserialize..__Visitor$u20$as$u20$serde..de..Visitor$GT$9visit_map17hf0987e24e21d3c44E
FNDA:0,_ZN264_$LT$guildpact..controller..user_controller.._IMPL_DESERIALIZE_FOR_BatchUserQueryParams..$LT$impl$u20$serde..de..Deserialize$u20$for$u20$guildpact..controller..user_controller..BatchUserQueryParams$GT$..deserialize..__FieldVisitor$u20$as$u20$serde..de..Visitor$GT$9expecting17hf089ea398425e205E
FNDA:0,_ZN107_$LT$guildpact..controller..user_controller..retrieve$u20$as$u20$actix_web..service..HttpServiceFactory$GT$8register8retrieve17he7550f63d0fe125dE
FNDA:1,_ZN9guildpact10controller15user_controller5tests25test_search_user_by_alias28_$u7b$$u7b$closure$u7d$$u7d$17h1f53de5f466eb0beE
FNDA:0,_ZN105_$LT$guildpact..controller..user_controller..create$u20$as$u20$actix_web..service..HttpServiceFactory$GT$8register6create28_$u7b$$u7b$closure$u7d$$u7d$17he1ae5eff4a6e9226E
FNDA:1,_ZN105_$LT$guildpact..controller..user_controller..update$u20$as$u20$actix_web..service..HttpServiceFactory$GT$8register6update28_$u7b$$u7b$closure$u7d$$u7d$17h879cae2276970f06E
FNDA:0,_ZN259_$LT$guildpact..controller..user_controller.._IMPL_DESERIALIZE_FOR_BatchUserQueryParams..$LT$impl$u20$serde..de..Deserialize$u20$for$u20$guildpact..controller..user_controller..BatchUserQueryParams$GT$..deserialize..__Visitor$u20$as$u20$serde..de..Visitor$GT$9visit_map17h278a31f1d8e2aba3E
FNDA:0,_ZN107_$LT$guildpact..controller..user_controller..retrieve$u20$as$u20$actix_web..service..HttpServiceFactory$GT$8register8retrieve28_$u7b$$u7b$closure$u7d$$u7d$17hc6a84bf20935a23aE
FNDA:0,_ZN254_$LT$guildpact..controller..user_controller.._IMPL_DESERIALIZE_FOR_UserQueryParams..$LT$impl$u20$serde..de..Deserialize$u20$for$u20$guildpact..controller..user_controller..UserQueryParams$GT$..deserialize..__FieldVisitor$u20$as$u20$serde..de..Visitor$GT$9visit_str17hc6dc04daec1a6ecfE
FNDA:1,_ZN105_$LT$guildpact..controller..user_controller..update$u20$as$u20$actix_web..service..HttpServiceFactory$GT$8register17hf86e2dadbe3ca44cE
FNDA:0,_ZN245_$LT$guildpact..controller..user_controller.._IMPL_DESERIALIZE_FOR_UserPathInfo..$LT$impl$u20$serde..de..Deserialize$u20$for$u20$guildpact..controller..user_controller..UserPathInfo$GT$..deserialize..__Field$u20$as$u20$serde..de..Deserialize$GT$11deserialize17h7e5e716775b60028E
FNDA:0,_ZN114_$LT$guildpact..controller..user_controller..get_users_by_id$u20$as$u20$actix_web..service..HttpServiceFactory$GT$8register15get_users_by_id28_$u7b$$u7b$closure$u7d$$u7d$17ha50e9fa3fb59809dE
FNDA:0,_ZN243_$LT$guildpact..controller..user_controller.._IMPL_DESERIALIZE_FOR_UserPathInfo..$LT$impl$u20$serde..de..Deserialize$u20$for$u20$guildpact..controller..user_controller..UserPathInfo$GT$..deserialize..__Visitor$u20$as$u20$serde..de..Visitor$GT$9expecting17h404be87e23a389e1E
FNDA:1,_ZN9guildpact10controller15user_controller5tests22test_get_user_with_uid28_$u7b$$u7b$closure$u7d$$u7d$17hc0b5a3577fc24652E
FNDA:0,_ZN105_$LT$guildpact..controller..user_controller..update$u20$as$u20$actix_web..service..HttpServiceFactory$GT$8register6update28_$u7b$$u7b$closure$u7d$$u7d$17hc4978e3d369d2443E
FNDA:1,_ZN9guildpact10controller15user_controller52_$LT$impl$u20$guildpact..model..user..UpdateUser$GT$4from17hf39629e41db72348E
FNF:143
FNH:45
BRDA:8,0,0,-
BRDA:8,0,1,1
BRDA:8,0,2,-
BRDA:8,0,3,-
BRDA:8,0,4,1
BRDA:8,0,5,1
BRDA:8,0,6,1
BRDA:8,0,7,-
BRDA:8,0,8,-
BRDA:8,0,9,1
BRDA:8,0,10,-
BRDA:8,0,11,1
BRDA:8,0,12,1
BRDA:8,0,13,-
BRDA:8,0,14,-
BRDA:8,0,15,-
BRDA:8,0,16,1
BRDA:8,0,17,-
BRDA:8,0,18,-
BRDA:8,0,19,-
BRDA:8,0,20,-
BRDA:8,0,21,-
BRDA:8,0,22,-
BRDA:13,0,0,-
BRDA:13,0,1,1
BRDA:13,0,2,-
BRDA:13,0,3,-
BRDA:13,0,4,1
BRDA:13,0,5,1
BRDA:13,0,6,1
BRDA:13,0,7,-
BRDA:13,0,8,-
BRDA:13,0,9,1
BRDA:13,0,10,-
BRDA:13,0,11,1
BRDA:13,0,12,1
BRDA:13,0,13,-
BRDA:13,0,14,-
BRDA:13,0,15,-
BRDA:13,0,16,1
BRDA:13,0,17,-
BRDA:13,0,18,-
BRDA:13,0,19,-
BRDA:13,0,20,-
BRDA:13,0,21,-
BRDA:13,0,22,-
BRDA:18,0,0,-
BRDA:18,0,1,-
BRDA:18,0,2,-
BRDA:18,0,3,-
BRDA:18,0,4,-
BRDA:18,0,5,-
BRDA:18,0,6,-
BRDA:18,0,7,-
BRDA:18,0,8,-
BRDA:18,0,9,-
BRDA:18,0,10,-
BRDA:18,0,11,-
BRDA:18,0,12,-
BRDA:18,0,13,-
BRDA:18,0,14,-
BRDA:18,0,15,-
BRDA:18,0,16,-
BRDA:18,0,17,-
BRDA:18,0,18,-
BRDA:18,0,19,-
BRDA:18,0,20,-
BRDA:18,0,21,-
BRDA:18,0,22,-
BRDA:50,0,0,-
BRDA:50,0,1,-
BRDA:50,0,2,1
BRDA:50,0,3,1
BRDA:50,0,4,1
BRDA:50,0,5,-
BRDA:50,0,6,-
BRDA:50,0,7,-
BRDA:50,0,8,-
BRDA:53,0,0,1
BRDA:53,0,1,-
BRDA:53,0,2,1
BRDA:53,0,3,1
BRDA:53,0,4,-
BRDA:53,0,5,-
BRDA:53,0,6,1
BRDA:53,0,7,-
BRDA:53,0,8,-
BRDA:62,0,0,-
BRDA:62,0,1,-
BRDA:62,0,2,1
BRDA:62,0,3,1
BRDA:62,0,4,1
BRDA:62,0,5,-
BRDA:62,0,6,-
BRDA:62,0,7,-
BRDA:62,0,8,-
BRDA:64,0,0,1
BRDA:64,0,1,-
BRDA:64,0,2,1
BRDA:64,0,3,1
BRDA:64,0,4,-
BRDA:64,0,5,-
BRDA:64,0,6,1
BRDA:64,0,7,-
BRDA:64,0,8,-
BRDA:74,0,0,-
BRDA:74,0,1,-
BRDA:74,0,2,1
BRDA:74,0,3,1
BRDA:74,0,4,1
BRDA:74,0,5,-
BRDA:74,0,6,-
BRDA:74,0,7,-
BRDA:74,0,8,-
BRDA:78,0,0,1
BRDA:78,0,1,-
BRDA:78,0,2,1
BRDA:78,0,3,1
BRDA:78,0,4,-
BRDA:78,0,5,-
BRDA:78,0,6,1
BRDA:78,0,7,-
BRDA:78,0,8,-
BRDA:87,0,0,-
BRDA:87,0,1,-
BRDA:87,0,2,-
BRDA:87,0,3,-
BRDA:87,0,4,-
BRDA:87,0,5,-
BRDA:87,0,6,-
BRDA:87,0,7,-
BRDA:87,0,8,-
BRDA:95,0,0,-
BRDA:95,0,1,-
BRDA:95,0,2,-
BRDA:95,0,3,-
BRDA:95,0,4,-
BRDA:95,0,5,-
BRDA:95,0,6,-
BRDA:95,0,7,-
BRDA:95,0,8,-
BRDA:104,0,0,-
BRDA:104,0,1,-
BRDA:104,0,2,1
BRDA:104,0,3,1
BRDA:104,0,4,1
BRDA:104,0,5,-
BRDA:104,0,6,-
BRDA:104,0,7,-
BRDA:104,0,8,-
BRDA:105,0,0,1
BRDA:105,0,1,-
BRDA:105,0,2,1
BRDA:109,0,0,1
BRDA:109,0,1,-
BRDA:109,0,2,-
BRDA:109,0,3,1
BRDA:109,0,4,-
BRDA:109,0,5,-
BRDA:140,0,0,-
BRDA:140,0,1,-
BRDA:140,0,2,-
BRDA:140,0,3,1
BRDA:140,0,4,1
BRDA:140,0,5,-
BRDA:140,0,6,1
BRDA:140,0,7,-
BRDA:140,0,8,-
BRDA:140,0,9,-
BRDA:140,0,10,-
BRDA:142,0,0,-
BRDA:142,0,1,-
BRDA:142,0,2,1
BRDA:156,0,0,1
BRDA:156,0,1,-
BRDA:156,0,2,1
BRDA:157,0,0,1
BRDA:157,0,1,-
BRDA:162,0,0,1
BRDA:162,0,1,-
BRDA:163,0,0,1
BRDA:163,0,1,-
BRDA:164,0,0,1
BRDA:164,0,1,-
BRDA:165,0,0,1
BRDA:165,0,1,-
BRDA:166,0,0,1
BRDA:166,0,1,-
BRDA:167,0,0,1
BRDA:167,0,1,-
BRDA:168,0,0,1
BRDA:168,0,1,-
BRDA:169,0,0,1
BRDA:169,0,1,-
BRDA:170,0,0,1
BRDA:170,0,1,-
BRDA:173,0,0,-
BRDA:173,0,1,-
BRDA:173,0,2,-
BRDA:173,0,3,-
BRDA:173,0,4,1
BRDA:173,0,5,1
BRDA:173,0,6,-
BRDA:173,0,7,1
BRDA:173,0,8,1
BRDA:173,0,9,-
BRDA:173,0,10,-
BRDA:173,0,11,-
BRDA:173,0,12,-
BRDA:175,0,0,-
BRDA:175,0,1,-
BRDA:175,0,2,1
BRDA:188,0,0,1
BRDA:188,0,1,-
BRDA:188,0,2,1
BRDA:202,0,0,1
BRDA:202,0,1,-
BRDA:202,0,2,1
BRDA:203,0,0,1
BRDA:203,0,1,-
BRDA:208,0,0,1
BRDA:208,0,1,-
BRDA:209,0,0,1
BRDA:209,0,1,-
BRDA:210,0,0,1
BRDA:210,0,1,-
BRDA:211,0,0,1
BRDA:211,0,1,-
BRDA:212,0,0,1
BRDA:212,0,1,-
BRDA:213,0,0,1
BRDA:213,0,1,-
BRDA:214,0,0,1
BRDA:214,0,1,-
BRDA:215,0,0,1
BRDA:215,0,1,-
BRDA:216,0,0,1
BRDA:216,0,1,-
BRDA:219,0,0,-
BRDA:219,0,1,-
BRDA:219,0,2,-
BRDA:219,0,3,-
BRDA:219,0,4,1
BRDA:219,0,5,1
BRDA:219,0,6,-
BRDA:219,0,7,1
BRDA:219,0,8,1
BRDA:219,0,9,-
BRDA:219,0,10,-
BRDA:219,0,11,-
BRDA:219,0,12,-
BRDA:221,0,0,-
BRDA:221,0,1,-
BRDA:221,0,2,1
BRDA:234,0,0,1
BRDA:234,0,1,-
BRDA:234,0,2,1
BRDA:240,0,0,1
BRDA:240,0,1,-
BRDA:240,0,2,1
BRDA:241,0,0,1
BRDA:241,0,1,-
BRDA:246,0,0,1
BRDA:246,0,1,-
BRDA:247,0,0,1
BRDA:247,0,1,-
BRDA:248,0,0,1
BRDA:248,0,1,-
BRDA:249,0,0,1
BRDA:249,0,1,-
BRDA:250,0,0,1
BRDA:250,0,1,-
BRDA:251,0,0,1
BRDA:251,0,1,-
BRDA:252,0,0,1
BRDA:252,0,1,-
BRDA:253,0,0,1
BRDA:253,0,1,-
BRDA:254,0,0,1
BRDA:254,0,1,-
BRDA:257,0,0,-
BRDA:257,0,1,-
BRDA:257,0,2,-
BRDA:257,0,3,-
BRDA:257,0,4,1
BRDA:257,0,5,1
BRDA:257,0,6,-
BRDA:257,0,7,1
BRDA:257,0,8,1
BRDA:257,0,9,-
BRDA:257,0,10,-
BRDA:257,0,11,-
BRDA:257,0,12,-
BRDA:259,0,0,-
BRDA:259,0,1,-
BRDA:259,0,2,1
BRDA:266,0,0,1
BRDA:266,0,1,-
BRDA:266,0,2,1
BRDA:273,0,0,1
BRDA:273,0,1,-
BRDA:273,0,2,1
BRDA:280,0,0,1
BRDA:280,0,1,-
BRDA:280,0,2,1
BRDA:281,0,0,1
BRDA:281,0,1,-
BRDA:286,0,0,1
BRDA:286,0,1,-
BRF:309
BRH:111
DA:1,0
DA:8,10
DA:13,5
DA:18,0
DA:24,33
DA:25,33
DA:26,33
DA:27,33
DA:28,33
DA:29,33
DA:30,33
DA:32,33
DA:36,1
DA:37,1
DA:38,1
DA:39,1
DA:40,1
DA:41,1
DA:43,1
DA:46,4
DA:47,33
DA:48,33
DA:49,33
DA:50,165
DA:51,33
DA:52,33
DA:53,66
DA:54,33
DA:55,66
DA:57,4
DA:58,1
DA:59,1
DA:60,1
DA:61,1
DA:62,5
DA:63,1
DA:64,2
DA:65,1
DA:66,2
DA:68,4
DA:69,1
DA:70,1
DA:71,1
DA:72,1
DA:73,1
DA:74,5
DA:75,1
DA:76,1
DA:78,2
DA:79,1
DA:80,2
DA:82,4
DA:83,0
DA:84,0
DA:85,0
DA:86,0
DA:87,0
DA:88,0
DA:92,0
DA:93,0
DA:95,0
DA:96,0
DA:97,0
DA:99,4
DA:100,1
DA:101,1
DA:102,1
DA:103,1
DA:104,5
DA:105,4
DA:108,1
DA:109,2
DA:111,1
DA:112,3
DA:114,4
DA:115,4
DA:120,4
DA:130,33
DA:131,33
DA:132,33
DA:133,33
DA:134,33
DA:135,33
DA:136,33
DA:138,33
DA:140,9
DA:142,1
DA:143,3
DA:144,2
DA:149,1
DA:151,1
DA:153,1
DA:156,2
DA:157,1
DA:159,1
DA:160,1
DA:162,1
DA:163,1
DA:164,1
DA:165,1
DA:166,1
DA:167,1
DA:168,1
DA:169,1
DA:170,1
DA:171,1
DA:173,11
DA:175,1
DA:176,3
DA:177,2
DA:182,1
DA:184,1
DA:186,1
DA:188,2
DA:190,1
DA:191,1
DA:192,1
DA:193,1
DA:194,1
DA:197,1
DA:199,1
DA:202,3
DA:203,1
DA:205,1
DA:206,1
DA:208,1
DA:209,1
DA:210,1
DA:211,1
DA:212,1
DA:213,1
DA:214,1
DA:215,1
DA:216,1
DA:217,1
DA:219,11
DA:221,1
DA:222,3
DA:223,2
DA:228,1
DA:230,1
DA:232,1
DA:234,2
DA:236,1
DA:240,3
DA:241,1
DA:243,1
DA:244,1
DA:246,1
DA:247,1
DA:248,1
DA:249,1
DA:250,1
DA:251,1
DA:252,1
DA:253,1
DA:254,1
DA:255,1
DA:257,40
DA:259,1
DA:260,3
DA:261,2
DA:266,31
DA:267,30
DA:269,30
DA:271,30
DA:273,60
DA:274,30
DA:276,1
DA:280,3
DA:281,1
DA:283,1
DA:284,1
DA:286,1
DA:287,1
LF:175
LH:162
end_of_record